target datalayout = "e-m:e-p270:32:32-p271:32:32-p272:64:64-i64:64-i128:128-f80:128-n8:16:32:64-S128"
target triple = "x86_64-pc-linux-gnu"

%struct.DdManager = type { %struct.DdNode, ptr, ptr, ptr, ptr, ptr, ptr, ptr, i32, i32, double, double, double, i32, i32, i32, i32, i32, i32, ptr, ptr, %struct.DdSubtable, i32, i32, i32, i32, i32, i32, i32, double, i32, i32, i32, ptr, i64, double, i32, ptr, ptr, ptr, ptr, ptr, ptr, ptr, i32, ptr, ptr, ptr, ptr, ptr, ptr, i32, i32, i32, double, i32, i32, i32, i32, double, double, i32, i32, i32, i32, i32, i32, i32, i32, i32, ptr, ptr, i32, i32, i32, i32, i32, i32, ptr, ptr, ptr, ptr, ptr, ptr, ptr, ptr, i32, i64, i64, i64, i32, i64, i64, double, double, double, double, double, double, i32, ptr, ptr, i64 }
%struct.DdNode = type { i32, i32, ptr, %union.anon, i64 }
%union.anon = type { %struct.DdChildren }
%struct.DdChildren = type { ptr, ptr }
%struct.DdSubtable = type { ptr, i32, i32, i32, i32, i32, i32, i32, i32, i32, i32, i32 }

; Function Attrs: nounwind uwtable
define i64 @Cudd_ReadNodeCount(ptr noundef %0) #0 {
  %2 = alloca ptr, align 8
  %3 = alloca i64, align 8
  %4 = alloca i32, align 4
  store ptr %0, ptr %2, align 8
  %5 = load ptr, ptr %2, align 8
  call void @cuddClearDeathRow(ptr noundef %5)
  %6 = load ptr, ptr %2, align 8
  %7 = getelementptr inbounds %struct.DdManager, ptr %6, i32 0, i32 23
  %8 = load i32, ptr %7, align 4
  %9 = load ptr, ptr %2, align 8
  %10 = getelementptr inbounds %struct.DdManager, ptr %9, i32 0, i32 25
  %11 = load i32, ptr %10, align 4
  %12 = sub i32 %8, %11
  %13 = zext i32 %12 to i64
  store i64 %13, ptr %3, align 8
  store i32 0, ptr %4, align 4
  br label %14

14:                                               ; preds = %35, %1
  %15 = load i32, ptr %4, align 4
  %16 = load ptr, ptr %2, align 8
  %17 = getelementptr inbounds %struct.DdManager, ptr %16, i32 0, i32 15
  %18 = load i32, ptr %17, align 8
  %19 = icmp slt i32 %15, %18
  br i1 %19, label %20, label %38

20:                                               ; preds = %14
  %21 = load ptr, ptr %2, align 8
  %22 = getelementptr inbounds %struct.DdManager, ptr %21, i32 0, i32 41
  %23 = load ptr, ptr %22, align 8
  %24 = load i32, ptr %4, align 4
  %25 = sext i32 %24 to i64
  %26 = getelementptr inbounds ptr, ptr %23, i64 %25
  %27 = load ptr, ptr %26, align 8
  %28 = getelementptr inbounds %struct.DdNode, ptr %27, i32 0, i32 1
  %29 = load i32, ptr %28, align 4
  %30 = icmp eq i32 %29, 1
  br i1 %30, label %31, label %34

31:                                               ; preds = %20
  %32 = load i64, ptr %3, align 8
  %33 = add nsw i64 %32, -1
  store i64 %33, ptr %3, align 8
  br label %34

34:                                               ; preds = %31, %20
  br label %35

35:                                               ; preds = %34
  %36 = load i32, ptr %4, align 4
  %37 = add nsw i32 %36, 1
  store i32 %37, ptr %4, align 4
  br label %14, !llvm.loop !30

38:                                               ; preds = %14
  %39 = load ptr, ptr %2, align 8
  %40 = getelementptr inbounds %struct.DdManager, ptr %39, i32 0, i32 2
  %41 = load ptr, ptr %40, align 8
  %42 = getelementptr inbounds %struct.DdNode, ptr %41, i32 0, i32 1
  %43 = load i32, ptr %42, align 4
  %44 = icmp eq i32 %43, 1
  br i1 %44, label %45, label %48

45:                                               ; preds = %38
  %46 = load i64, ptr %3, align 8
  %47 = add nsw i64 %46, -1
  store i64 %47, ptr %3, align 8
  br label %48

48:                                               ; preds = %45, %38
  %49 = load ptr, ptr %2, align 8
  %50 = getelementptr inbounds %struct.DdManager, ptr %49, i32 0, i32 3
  %51 = load ptr, ptr %50, align 8
  %52 = getelementptr inbounds %struct.DdNode, ptr %51, i32 0, i32 1
  %53 = load i32, ptr %52, align 4
  %54 = icmp eq i32 %53, 1
  br i1 %54, label %55, label %58

55:                                               ; preds = %48
  %56 = load i64, ptr %3, align 8
  %57 = add nsw i64 %56, -1
  store i64 %57, ptr %3, align 8
  br label %58

58:                                               ; preds = %55, %48
  %59 = load ptr, ptr %2, align 8
  %60 = getelementptr inbounds %struct.DdManager, ptr %59, i32 0, i32 4
  %61 = load ptr, ptr %60, align 8
  %62 = getelementptr inbounds %struct.DdNode, ptr %61, i32 0, i32 1
  %63 = load i32, ptr %62, align 4
  %64 = icmp eq i32 %63, 1
  br i1 %64, label %65, label %68

65:                                               ; preds = %58
  %66 = load i64, ptr %3, align 8
  %67 = add nsw i64 %66, -1
  store i64 %67, ptr %3, align 8
  br label %68

68:                                               ; preds = %65, %58
  %69 = load i64, ptr %3, align 8
  ret i64 %69
}