; Function Attrs: nounwind uwtable
define i64 @Cudd_ReadNodeCount(ptr noundef %0) local_unnamed_addr #0 {
  tail call void @cuddClearDeathRow(ptr noundef %0) #20
  %2 = getelementptr inbounds nuw i8, ptr %0, i64 228
  %3 = load i32, ptr %2, align 4
  %4 = getelementptr inbounds nuw i8, ptr %0, i64 236
  %5 = load i32, ptr %4, align 4
  %6 = sub i32 %3, %5
  %7 = zext i32 %6 to i64
  %8 = getelementptr inbounds nuw i8, ptr %0, i64 136
  %9 = load i32, ptr %8, align 8
  %10 = icmp sgt i32 %9, 0
  br i1 %10, label %.lr.ph, label %._crit_edge

.lr.ph:                                           ; preds = %1
  %11 = getelementptr inbounds nuw i8, ptr %0, i64 344
  %12 = load ptr, ptr %11, align 8
  %wide.trip.count = zext nneg i32 %9 to i64
  br label %13

13:                                               ; preds = %.lr.ph, %13
  %indvars.iv = phi i64 [ 0, %.lr.ph ], [ %indvars.iv.next, %13 ]
  %.01517 = phi i64 [ %7, %.lr.ph ], [ %spec.select, %13 ]
  %14 = getelementptr inbounds nuw ptr, ptr %12, i64 %indvars.iv
  %15 = load ptr, ptr %14, align 8
  %16 = getelementptr inbounds nuw i8, ptr %15, i64 4
  %17 = load i32, ptr %16, align 4
  %18 = icmp eq i32 %17, 1
  %19 = sext i1 %18 to i64
  %spec.select = add nsw i64 %.01517, %19
  %indvars.iv.next = add nuw nsw i64 %indvars.iv, 1
  %exitcond.not = icmp eq i64 %indvars.iv.next, %wide.trip.count
  br i1 %exitcond.not, label %._crit_edge, label %13, !llvm.loop !29

._crit_edge:                                      ; preds = %13, %1
  %.015.lcssa = phi i64 [ %7, %1 ], [ %spec.select, %13 ]
  %20 = getelementptr inbounds nuw i8, ptr %0, i64 48
  %21 = load ptr, ptr %20, align 8
  %22 = getelementptr inbounds nuw i8, ptr %21, i64 4
  %23 = load i32, ptr %22, align 4
  %24 = icmp eq i32 %23, 1
  %25 = sext i1 %24 to i64
  %spec.select16 = add nsw i64 %.015.lcssa, %25
  %26 = getelementptr inbounds nuw i8, ptr %0, i64 56
  %27 = load ptr, ptr %26, align 8
  %28 = getelementptr inbounds nuw i8, ptr %27, i64 4
  %29 = load i32, ptr %28, align 4
  %30 = icmp eq i32 %29, 1
  %31 = sext i1 %30 to i64
  %.3 = add nsw i64 %spec.select16, %31
  %32 = getelementptr inbounds nuw i8, ptr %0, i64 64
  %33 = load ptr, ptr %32, align 8
  %34 = getelementptr inbounds nuw i8, ptr %33, i64 4
  %35 = load i32, ptr %34, align 4
  %36 = icmp eq i32 %35, 1
  %37 = sext i1 %36 to i64
  %.4 = add nsw i64 %.3, %37
  ret i64 %.4
}